target datalayout = "e-m:e-p270:32:32-p271:32:32-p272:64:64-i64:64-i128:128-f80:128-n8:16:32:64-S128"
target triple = "x86_64-pc-linux-gnu"

%struct.PlatformTarget = type { ptr, i32, ptr, ptr, i32, i32, i32, i32, i32, i32, i32, [7 x %struct.AlignData], [7 x %struct.AlignData], [7 x %struct.AlignData], i32, i16, %union.anon, i8, i8, i8, i8, i8, i8, i8, i8, i8, i8, %struct.AlignData, i32, i32, i32, i32, i32, i32, i32, i32, i32, i32, i32, i32, i32, i32, i32, i32, ptr }
%union.anon = type { %struct.anon.0 }
%struct.anon.0 = type { %struct.X86Features, i32, i32 }
%struct.X86Features = type { [2 x i64], ptr }
%struct.AlignData = type { i32, i32 }

@platform_target = external global %struct.PlatformTarget, align 8

; Function Attrs: nounwind uwtable
define dso_local zeroext i1 @static_lib_linker(ptr noundef %0, ptr noundef %1, i32 noundef %2) #0 {
  %4 = alloca ptr, align 8
  %5 = alloca ptr, align 8
  %6 = alloca i32, align 4
  %7 = alloca i32, align 4
  store ptr %0, ptr %4, align 8
  store ptr %1, ptr %5, align 8
  store i32 %2, ptr %6, align 4
  %8 = load i32, ptr getelementptr inbounds (%struct.PlatformTarget, ptr @platform_target, i32 0, i32 5), align 4
  switch i32 %8, label %13 [
    i32 28, label %9
    i32 7, label %9
    i32 27, label %9
    i32 11, label %9
    i32 15, label %10
    i32 5, label %11
    i32 12, label %11
    i32 13, label %11
    i32 9, label %12
  ]

9:                                                ; preds = %3, %3, %3, %3
  store i32 1, ptr %7, align 4
  br label %14

10:                                               ; preds = %3
  store i32 5, ptr %7, align 4
  br label %14

11:                                               ; preds = %3, %3, %3
  store i32 3, ptr %7, align 4
  br label %14

12:                                               ; preds = %3
  br label %13

13:                                               ; preds = %12, %3
  store i32 0, ptr %7, align 4
  br label %14

14:                                               ; preds = %13, %11, %10, %9
  %15 = load ptr, ptr %4, align 8
  %16 = load ptr, ptr %5, align 8
  %17 = load i32, ptr %6, align 4
  %18 = zext i32 %17 to i64
  %19 = load i32, ptr %7, align 4
  %20 = call zeroext i1 @llvm_ar(ptr noundef %15, ptr noundef %16, i64 noundef %18, i32 noundef %19)
  ret i1 %20
}