; Function Attrs: nounwind uwtable
define dso_local zeroext i1 @static_lib_linker(ptr noundef %0, ptr noundef %1, i32 noundef %2) local_unnamed_addr #0 {
  %4 = load i32, ptr getelementptr inbounds (%struct.PlatformTarget, ptr @platform_target, i64 0, i32 5), align 4
  switch i32 %4, label %7 [
    i32 28, label %8
    i32 7, label %8
    i32 27, label %8
    i32 11, label %8
    i32 15, label %5
    i32 5, label %6
    i32 12, label %6
    i32 13, label %6
  ]

5:                                                ; preds = %3
  br label %8

6:                                                ; preds = %3, %3, %3
  br label %8

7:                                                ; preds = %3
  br label %8

8:                                                ; preds = %3, %3, %3, %3, %7, %6, %5
  %.0 = phi i32 [ 0, %7 ], [ 3, %6 ], [ 5, %5 ], [ 1, %3 ], [ 1, %3 ], [ 1, %3 ], [ 1, %3 ]
  %9 = zext i32 %2 to i64
  %10 = tail call zeroext i1 @llvm_ar(ptr noundef %0, ptr noundef %1, i64 noundef %9, i32 noundef %.0) #11
  ret i1 %10
}